; Function Attrs: mustprogress uwtable
define noundef zeroext i1 @_ZNK32pxrInternal_v0_24__pxrReserved__14SdfPathPattern17CanAppendPropertyERKNSt7__cxx1112basic_stringIcSt11char_traitsIcESaIcEEERKNS_22SdfPredicateExpressionEPS6_(ptr noundef nonnull align 8 dereferenceable(57) %0, ptr noundef nonnull align 8 dereferenceable(32) %1, ptr nocapture noundef nonnull readonly align 8 dereferenceable(80) %2, ptr noundef %3) local_unnamed_addr #1 align 2 personality ptr @__gxx_personality_v0 {
  %5 = alloca %"class.std::__cxx11::basic_string", align 8
  %6 = alloca %"class.std::__cxx11::basic_string", align 8
  %7 = alloca %"class.std::__cxx11::basic_string", align 8
  %8 = alloca %"class.std::__cxx11::basic_string", align 8
  %9 = getelementptr inbounds nuw i8, ptr %0, i64 56
  %10 = load i8, ptr %9, align 8
  %11 = trunc i8 %10 to i1
  br i1 %11, label %12, label %20

12:                                               ; preds = %4
  %13 = tail call noundef ptr @_ZNKSt7__cxx1112basic_stringIcSt11char_traitsIcESaIcEE5c_strEv(ptr noundef nonnull align 8 dereferenceable(32) %1) #17
  call void @_ZNK32pxrInternal_v0_24__pxrReserved__14SdfPathPattern7GetTextB5cxx11Ev(ptr dead_on_unwind nonnull writable sret(%"class.std::__cxx11::basic_string") align 8 %7, ptr noundef nonnull align 8 dereferenceable(57) %0)
  %14 = call noundef ptr @_ZNKSt7__cxx1112basic_stringIcSt11char_traitsIcESaIcEE5c_strEv(ptr noundef nonnull align 8 dereferenceable(32) %7) #17
  call void @llvm.lifetime.start.p0(i64 32, ptr nonnull %6)
  %.not.i = icmp eq ptr %3, null
  br i1 %.not.i, label %17, label %15

15:                                               ; preds = %12
  invoke void (ptr, ptr, ...) @_ZN32pxrInternal_v0_24__pxrReserved__14TfStringPrintfB5cxx11EPKcz(ptr dead_on_unwind nonnull writable sret(%"class.std::__cxx11::basic_string") align 8 %6, ptr noundef nonnull @.str.5, ptr noundef %13, ptr noundef %14)
          to label %.noexc unwind label %18

.noexc:                                           ; preds = %15
  %16 = call noundef nonnull align 8 dereferenceable(32) ptr @_ZNSt7__cxx1112basic_stringIcSt11char_traitsIcESaIcEEaSEOS4_(ptr noundef nonnull align 8 dereferenceable(32) %3, ptr noundef nonnull align 8 dereferenceable(32) %6) #17
  call void @_ZNSt7__cxx1112basic_stringIcSt11char_traitsIcESaIcEED1Ev(ptr noundef nonnull align 8 dereferenceable(32) %6) #17
  br label %17

17:                                               ; preds = %.noexc, %12
  call void @llvm.lifetime.end.p0(i64 32, ptr nonnull %6)
  br label %.sink.split

18:                                               ; preds = %15
  %19 = landingpad { ptr, i32 }
          cleanup
  br label %34

20:                                               ; preds = %4
  %21 = tail call noundef zeroext i1 @_ZNKSt7__cxx1112basic_stringIcSt11char_traitsIcESaIcEE5emptyEv(ptr noundef nonnull align 8 dereferenceable(32) %1) #17
  br i1 %21, label %22, label %33

22:                                               ; preds = %20
  %23 = load ptr, ptr %2, align 8
  %24 = getelementptr inbounds nuw i8, ptr %2, i64 8
  %25 = load ptr, ptr %24, align 8
  %.not = icmp eq ptr %23, %25
  br i1 %.not, label %26, label %33

26:                                               ; preds = %22
  call void @_ZNK32pxrInternal_v0_24__pxrReserved__14SdfPathPattern7GetTextB5cxx11Ev(ptr dead_on_unwind nonnull writable sret(%"class.std::__cxx11::basic_string") align 8 %8, ptr noundef nonnull align 8 dereferenceable(57) %0)
  %27 = call noundef ptr @_ZNKSt7__cxx1112basic_stringIcSt11char_traitsIcESaIcEE5c_strEv(ptr noundef nonnull align 8 dereferenceable(32) %8) #17
  call void @llvm.lifetime.start.p0(i64 32, ptr nonnull %5)
  %.not.i10 = icmp eq ptr %3, null
  br i1 %.not.i10, label %30, label %28

28:                                               ; preds = %26
  invoke void (ptr, ptr, ...) @_ZN32pxrInternal_v0_24__pxrReserved__14TfStringPrintfB5cxx11EPKcz(ptr dead_on_unwind nonnull writable sret(%"class.std::__cxx11::basic_string") align 8 %5, ptr noundef nonnull @.str.6, ptr noundef %27)
          to label %.noexc11 unwind label %31

.noexc11:                                         ; preds = %28
  %29 = call noundef nonnull align 8 dereferenceable(32) ptr @_ZNSt7__cxx1112basic_stringIcSt11char_traitsIcESaIcEEaSEOS4_(ptr noundef nonnull align 8 dereferenceable(32) %3, ptr noundef nonnull align 8 dereferenceable(32) %5) #17
  call void @_ZNSt7__cxx1112basic_stringIcSt11char_traitsIcESaIcEED1Ev(ptr noundef nonnull align 8 dereferenceable(32) %5) #17
  br label %30

30:                                               ; preds = %.noexc11, %26
  call void @llvm.lifetime.end.p0(i64 32, ptr nonnull %5)
  br label %.sink.split

31:                                               ; preds = %28
  %32 = landingpad { ptr, i32 }
          cleanup
  br label %34

.sink.split:                                      ; preds = %17, %30
  %.sink = phi ptr [ %8, %30 ], [ %7, %17 ]
  call void @_ZNSt7__cxx1112basic_stringIcSt11char_traitsIcESaIcEED1Ev(ptr noundef nonnull align 8 dereferenceable(32) %.sink) #17
  br label %33

33:                                               ; preds = %.sink.split, %20, %22
  %.08 = phi i1 [ true, %22 ], [ true, %20 ], [ false, %.sink.split ]
  ret i1 %.08

34:                                               ; preds = %31, %18
  %.sink15 = phi ptr [ %8, %31 ], [ %7, %18 ]
  %.pn = phi { ptr, i32 } [ %32, %31 ], [ %19, %18 ]
  call void @_ZNSt7__cxx1112basic_stringIcSt11char_traitsIcESaIcEED1Ev(ptr noundef nonnull align 8 dereferenceable(32) %.sink15) #17
  resume { ptr, i32 } %.pn
}